; Function Attrs: mustprogress uwtable
define internal noundef nonnull ptr @"_ZNSt17_Function_handlerIFPN7xgboost11ObjFunctionEvENS0_3obj3$_1EE9_M_invokeERKSt9_Any_data"(ptr nocapture nonnull readnone align 8 %0) #4 align 2 personality ptr @__gxx_personality_v0 {
  %2 = tail call noalias noundef nonnull dereferenceable(40) ptr @_Znwm(i64 noundef 40) #31
  store ptr getelementptr inbounds inrange(-16, 120) (i8, ptr @_ZTVN7xgboost3obj20SoftmaxMultiClassObjE, i64 16), ptr %2, align 8
  %3 = getelementptr inbounds i8, ptr %2, i64 16
  store i8 1, ptr %3, align 8
  %4 = getelementptr inbounds i8, ptr %2, i64 20
  store i8 0, ptr %4, align 1
  %5 = getelementptr inbounds i8, ptr %2, i64 32
  invoke void @_ZN7xgboost16HostDeviceVectorIiEC1EmiNS_9DeviceOrdE(ptr noundef nonnull align 8 dereferenceable(8) %5, i64 noundef 0, i32 noundef 0, i32 -65536)
          to label %"_ZSt10__invoke_rIPN7xgboost11ObjFunctionERNS0_3obj3$_1EJEENSt9enable_ifIX16is_invocable_r_vIT_T0_DpT1_EES7_E4typeEOS8_DpOS9_.exit" unwind label %6

6:                                                ; preds = %1
  %7 = landingpad { ptr, i32 }
          cleanup
  tail call void @_ZdlPvm(ptr noundef nonnull %2, i64 noundef 40) #30
  resume { ptr, i32 } %7

"_ZSt10__invoke_rIPN7xgboost11ObjFunctionERNS0_3obj3$_1EJEENSt9enable_ifIX16is_invocable_r_vIT_T0_DpT1_EES7_E4typeEOS8_DpOS9_.exit": ; preds = %1
  ret ptr %2
}